	.file	"idt.c"
	.text
.Ltext0:
	.comm	idt,2048,32
	.comm	idt_reg,6,4
	.globl	set_idt_gate
	.type	set_idt_gate, @function
set_idt_gate:
.LFB0:
	.file 1 "cpu/idt.c"
	.loc 1 4 0
	.cfi_startproc
	pushl	%ebp
	.cfi_def_cfa_offset 8
	.cfi_offset 5, -8
	movl	%esp, %ebp
	.cfi_def_cfa_register 5
	.loc 1 5 0
	movl	12(%ebp), %eax
	movl	8(%ebp), %edx
	movw	%ax, idt(,%edx,8)
	.loc 1 6 0
	movl	8(%ebp), %eax
	movw	$8, idt+2(,%eax,8)
	.loc 1 7 0
	movl	8(%ebp), %eax
	movb	$0, idt+4(,%eax,8)
	.loc 1 8 0
	movl	8(%ebp), %eax
	movb	$-114, idt+5(,%eax,8)
	.loc 1 9 0
	movl	12(%ebp), %eax
	shrl	$16, %eax
	movl	8(%ebp), %edx
	movw	%ax, idt+6(,%edx,8)
	.loc 1 10 0
	nop
	popl	%ebp
	.cfi_restore 5
	.cfi_def_cfa 4, 4
	ret
	.cfi_endproc
.LFE0:
	.size	set_idt_gate, .-set_idt_gate
	.globl	set_idt
	.type	set_idt, @function
set_idt:
.LFB1:
	.loc 1 12 0
	.cfi_startproc
	pushl	%ebp
	.cfi_def_cfa_offset 8
	.cfi_offset 5, -8
	movl	%esp, %ebp
	.cfi_def_cfa_register 5
	.loc 1 13 0
	movl	$idt, %eax
	movl	%eax, idt_reg+2
	.loc 1 14 0
	movw	$2047, idt_reg
	.loc 1 16 0
	movl	$idt_reg, %eax
/APP
/  16 "cpu/idt.c" 1
	lidtl (%eax)
/  0 "" 2
	.loc 1 17 0
/NO_APP
	nop
	popl	%ebp
	.cfi_restore 5
	.cfi_def_cfa 4, 4
	ret
	.cfi_endproc
.LFE1:
	.size	set_idt, .-set_idt
.Letext0:
	.file 2 "cpu/types.h"
	.file 3 "cpu/idt.h"